; Function Attrs: nofree nosync nounwind memory(readwrite, inaccessiblemem: none) uwtable
define void @Saig_ManDemiterLabel_rec(ptr noundef %0, ptr noundef captures(none) %1, i32 noundef %2) local_unnamed_addr #7 {
  %4 = getelementptr i8, ptr %0, i64 312
  %.val2541 = load i32, ptr %4, align 8, !tbaa !95
  %5 = getelementptr i8, ptr %1, i64 32
  %.val2642 = load i32, ptr %5, align 8, !tbaa !96
  %.not43 = icmp eq i32 %.val2642, %.val2541
  br i1 %.not43, label %Saig_ObjIsPi.exit._crit_edge, label %.lr.ph

.lr.ph:                                           ; preds = %3
  %.not20 = icmp eq i32 %2, 0
  %6 = getelementptr i8, ptr %0, i64 108
  %7 = getelementptr inbounds nuw i8, ptr %0, i64 24
  %8 = getelementptr i8, ptr %0, i64 112
  br i1 %.not20, label %.lr.ph.split.us, label %.lr.ph.split

.lr.ph.split.us:                                  ; preds = %.lr.ph, %tailrecurse.backedge.us
  %9 = phi ptr [ %27, %tailrecurse.backedge.us ], [ %5, %.lr.ph ]
  %.val2545.us = phi i32 [ %.val25.us, %tailrecurse.backedge.us ], [ %.val2541, %.lr.ph ]
  %.tr3944.us = phi ptr [ %.tr39.be.us, %tailrecurse.backedge.us ], [ %1, %.lr.ph ]
  store i32 %.val2545.us, ptr %9, align 8, !tbaa !96
  %10 = getelementptr inbounds nuw i8, ptr %.tr3944.us, i64 24
  %11 = load i64, ptr %10, align 8
  %12 = or i64 %11, 16
  store i64 %12, ptr %10, align 8
  %13 = and i64 %11, 7
  %.not.i.us = icmp eq i64 %13, 2
  br i1 %.not.i.us, label %Saig_ObjIsPi.exit.us, label %Saig_ObjIsLo.exit.thread.us

Saig_ObjIsPi.exit.us:                             ; preds = %.lr.ph.split.us
  %.val4.i.us = load i32, ptr %.tr3944.us, align 8, !tbaa !33
  %.val.i.us = load i32, ptr %6, align 4, !tbaa !3
  %.not37.us = icmp slt i32 %.val4.i.us, %.val.i.us
  br i1 %.not37.us, label %Saig_ObjIsPi.exit._crit_edge, label %Saig_ObjIsLo.exit.us

Saig_ObjIsLo.exit.us:                             ; preds = %Saig_ObjIsPi.exit.us
  %14 = load ptr, ptr %7, align 8, !tbaa !27
  %.val4.i33.us = load i32, ptr %8, align 8, !tbaa !25
  %15 = add nsw i32 %.val4.i33.us, %.val4.i.us
  %16 = sub i32 %15, %.val.i.us
  %17 = getelementptr i8, ptr %14, i64 8
  %.val5.i.us = load ptr, ptr %17, align 8, !tbaa !28
  %18 = sext i32 %16 to i64
  %19 = getelementptr inbounds ptr, ptr %.val5.i.us, i64 %18
  %20 = load ptr, ptr %19, align 8, !tbaa !31
  %21 = getelementptr i8, ptr %20, i64 8
  br label %tailrecurse.backedge.us

Saig_ObjIsLo.exit.thread.us:                      ; preds = %.lr.ph.split.us
  %22 = getelementptr i8, ptr %.tr3944.us, i64 8
  %.val.us = load ptr, ptr %22, align 8, !tbaa !32
  %23 = ptrtoint ptr %.val.us to i64
  %24 = and i64 %23, -2
  %25 = inttoptr i64 %24 to ptr
  tail call void @Saig_ManDemiterLabel_rec(ptr noundef nonnull %0, ptr noundef %25, i32 noundef 0)
  %26 = getelementptr i8, ptr %.tr3944.us, i64 16
  br label %tailrecurse.backedge.us

tailrecurse.backedge.us:                          ; preds = %Saig_ObjIsLo.exit.thread.us, %Saig_ObjIsLo.exit.us
  %.tr39.be.us.in.in.in.in = phi ptr [ %21, %Saig_ObjIsLo.exit.us ], [ %26, %Saig_ObjIsLo.exit.thread.us ]
  %.tr39.be.us.in.in.in = load ptr, ptr %.tr39.be.us.in.in.in.in, align 8, !tbaa !56
  %.tr39.be.us.in.in = ptrtoint ptr %.tr39.be.us.in.in.in to i64
  %.tr39.be.us.in = and i64 %.tr39.be.us.in.in, -2
  %.tr39.be.us = inttoptr i64 %.tr39.be.us.in to ptr
  %.val25.us = load i32, ptr %4, align 8, !tbaa !95
  %27 = getelementptr i8, ptr %.tr39.be.us, i64 32
  %.val26.us = load i32, ptr %27, align 8, !tbaa !96
  %.not.us = icmp eq i32 %.val26.us, %.val25.us
  br i1 %.not.us, label %Saig_ObjIsPi.exit._crit_edge, label %.lr.ph.split.us

.lr.ph.split:                                     ; preds = %.lr.ph, %tailrecurse.backedge
  %28 = phi ptr [ %41, %tailrecurse.backedge ], [ %5, %.lr.ph ]
  %.val2545 = phi i32 [ %.val25, %tailrecurse.backedge ], [ %.val2541, %.lr.ph ]
  %.tr3944 = phi ptr [ %.tr39.be, %tailrecurse.backedge ], [ %1, %.lr.ph ]
  store i32 %.val2545, ptr %28, align 8, !tbaa !96
  %29 = getelementptr inbounds nuw i8, ptr %.tr3944, i64 24
  %30 = load i64, ptr %29, align 8
  %31 = or i64 %30, 32
  store i64 %31, ptr %29, align 8
  %32 = and i64 %30, 7
  %.not.i = icmp eq i64 %32, 2
  br i1 %.not.i, label %Saig_ObjIsPi.exit, label %Saig_ObjIsLo.exit.thread

Saig_ObjIsPi.exit:                                ; preds = %.lr.ph.split
  %.val4.i = load i32, ptr %.tr3944, align 8, !tbaa !33
  %.val.i = load i32, ptr %6, align 4, !tbaa !3
  %.not37 = icmp slt i32 %.val4.i, %.val.i
  br i1 %.not37, label %Saig_ObjIsPi.exit._crit_edge, label %Saig_ObjIsLo.exit

Saig_ObjIsLo.exit:                                ; preds = %Saig_ObjIsPi.exit
  %33 = load ptr, ptr %7, align 8, !tbaa !27
  %.val4.i33 = load i32, ptr %8, align 8, !tbaa !25
  %34 = add nsw i32 %.val4.i33, %.val4.i
  %35 = sub i32 %34, %.val.i
  %36 = getelementptr i8, ptr %33, i64 8
  %.val5.i = load ptr, ptr %36, align 8, !tbaa !28
  %37 = sext i32 %35 to i64
  %38 = getelementptr inbounds ptr, ptr %.val5.i, i64 %37
  %39 = load ptr, ptr %38, align 8, !tbaa !31
  %40 = getelementptr i8, ptr %39, i64 8
  br label %tailrecurse.backedge

tailrecurse.backedge:                             ; preds = %Saig_ObjIsLo.exit, %Saig_ObjIsLo.exit.thread
  %.tr39.be.in.in.in.in = phi ptr [ %40, %Saig_ObjIsLo.exit ], [ %46, %Saig_ObjIsLo.exit.thread ]
  %.tr39.be.in.in.in = load ptr, ptr %.tr39.be.in.in.in.in, align 8, !tbaa !56
  %.tr39.be.in.in = ptrtoint ptr %.tr39.be.in.in.in to i64
  %.tr39.be.in = and i64 %.tr39.be.in.in, -2
  %.tr39.be = inttoptr i64 %.tr39.be.in to ptr
  %.val25 = load i32, ptr %4, align 8, !tbaa !95
  %41 = getelementptr i8, ptr %.tr39.be, i64 32
  %.val26 = load i32, ptr %41, align 8, !tbaa !96
  %.not = icmp eq i32 %.val26, %.val25
  br i1 %.not, label %Saig_ObjIsPi.exit._crit_edge, label %.lr.ph.split

Saig_ObjIsLo.exit.thread:                         ; preds = %.lr.ph.split
  %42 = getelementptr i8, ptr %.tr3944, i64 8
  %.val = load ptr, ptr %42, align 8, !tbaa !32
  %43 = ptrtoint ptr %.val to i64
  %44 = and i64 %43, -2
  %45 = inttoptr i64 %44 to ptr
  tail call void @Saig_ManDemiterLabel_rec(ptr noundef nonnull %0, ptr noundef %45, i32 noundef %2)
  %46 = getelementptr i8, ptr %.tr3944, i64 16
  br label %tailrecurse.backedge

Saig_ObjIsPi.exit._crit_edge:                     ; preds = %tailrecurse.backedge, %Saig_ObjIsPi.exit, %tailrecurse.backedge.us, %Saig_ObjIsPi.exit.us, %3
  ret void
}